target datalayout = "e-m:e-p270:32:32-p271:32:32-p272:64:64-i64:64-i128:128-f80:128-n8:16:32:64-S128"
target triple = "x86_64-pc-linux-gnu"

%class.lua_exception = type <{ %"class.std::exception", ptr, i32, [4 x i8] }>
%"class.std::exception" = type { ptr }

@_ZTI13lua_exception = linkonce_odr dso_local constant { ptr, ptr, ptr } { ptr getelementptr inbounds (ptr, ptr @_ZTVN10__cxxabiv120__si_class_type_infoE, i64 2), ptr @_ZTS13lua_exception, ptr @_ZTISt9exception }, comdat, align 8
@_ZTISt9exception = external constant ptr

; Function Attrs: mustprogress nounwind uwtable
define linkonce_odr dso_local noundef i32 @_ZNK13lua_exception9getStatusEv(ptr noundef nonnull align 8 dereferenceable(20) %0) #1 comdat align 2 {
  %2 = alloca ptr, align 8
  store ptr %0, ptr %2, align 8, !tbaa !25
  %3 = load ptr, ptr %2, align 8
  %4 = getelementptr inbounds nuw %class.lua_exception, ptr %3, i32 0, i32 2
  %5 = load i32, ptr %4, align 8, !tbaa !31
  ret i32 %5
}

; Function Attrs: mustprogress uwtable
define hidden noundef i32 @_Z20luaD_rawrunprotectedP9lua_StatePFvS0_PvES1_(ptr noundef %0, ptr noundef %1, ptr noundef %2) #2 personality ptr @__gxx_personality_v0 {
  %4 = alloca i32, align 4
  %5 = alloca ptr, align 8
  %6 = alloca ptr, align 8
  %7 = alloca ptr, align 8
  %8 = alloca i32, align 4
  %9 = alloca ptr, align 8
  %10 = alloca i32, align 4
  %11 = alloca i32, align 4
  %12 = alloca ptr, align 8
  %13 = alloca ptr, align 8
  %14 = alloca ptr, align 8
  store ptr %0, ptr %5, align 8, !tbaa !20
  store ptr %1, ptr %6, align 8, !tbaa !22
  store ptr %2, ptr %7, align 8, !tbaa !22
  call void @llvm.lifetime.start.p0(i64 4, ptr %8) #15
  store i32 0, ptr %8, align 4, !tbaa !23
  %15 = load ptr, ptr %6, align 8, !tbaa !22
  %16 = load ptr, ptr %5, align 8, !tbaa !20
  %17 = load ptr, ptr %7, align 8, !tbaa !22
  invoke void %15(ptr noundef %16, ptr noundef %17)
          to label %18 unwind label %19

18:                                               ; preds = %3
  store i32 0, ptr %4, align 4
  store i32 1, ptr %11, align 4
  br label %72

19:                                               ; preds = %3
  %20 = landingpad { ptr, i32 }
          cleanup
          catch ptr @_ZTI13lua_exception
          catch ptr @_ZTISt9exception
  %21 = extractvalue { ptr, i32 } %20, 0
  store ptr %21, ptr %9, align 8
  %22 = extractvalue { ptr, i32 } %20, 1
  store i32 %22, ptr %10, align 4
  br label %23

23:                                               ; preds = %19
  %24 = load i32, ptr %10, align 4
  %25 = call i32 @llvm.eh.typeid.for.p0(ptr @_ZTI13lua_exception) #15
  %26 = icmp eq i32 %24, %25
  br i1 %26, label %27, label %35

27:                                               ; preds = %23
  call void @llvm.lifetime.start.p0(i64 8, ptr %14) #15
  %28 = load ptr, ptr %9, align 8
  %29 = call ptr @__cxa_begin_catch(ptr %28) #15
  store ptr %29, ptr %14, align 8
  %30 = load ptr, ptr %14, align 8, !tbaa !25
  %31 = invoke noundef i32 @_ZNK13lua_exception9getStatusEv(ptr noundef nonnull align 8 dereferenceable(20) %30)
          to label %32 unwind label %67

32:                                               ; preds = %27
  store i32 %31, ptr %8, align 4, !tbaa !23
  call void @__cxa_end_catch()
  call void @llvm.lifetime.end.p0(i64 8, ptr %14) #15
  br label %33

33:                                               ; preds = %32, %60
  %34 = load i32, ptr %8, align 4, !tbaa !23
  store i32 %34, ptr %4, align 4
  store i32 1, ptr %11, align 4
  br label %72

35:                                               ; preds = %23
  %36 = call i32 @llvm.eh.typeid.for.p0(ptr @_ZTISt9exception) #15
  %37 = icmp eq i32 %24, %36
  br i1 %37, label %38, label %74

38:                                               ; preds = %35
  call void @llvm.lifetime.start.p0(i64 8, ptr %12) #15
  %39 = load ptr, ptr %9, align 8
  %40 = call ptr @__cxa_begin_catch(ptr %39) #15
  store ptr %40, ptr %12, align 8
  %41 = load ptr, ptr %5, align 8, !tbaa !20
  %42 = load ptr, ptr %12, align 8, !tbaa !27
  %43 = load ptr, ptr %42, align 8, !tbaa !29
  %44 = getelementptr inbounds ptr, ptr %43, i64 2
  %45 = load ptr, ptr %44, align 8
  %46 = call noundef ptr %45(ptr noundef nonnull align 8 dereferenceable(8) %42) #15
  invoke void @_Z14luaG_pusherrorP9lua_StatePKc(ptr noundef %41, ptr noundef %46)
          to label %47 unwind label %48

47:                                               ; preds = %38
  store i32 2, ptr %8, align 4, !tbaa !23
  br label %60

48:                                               ; preds = %38
  %49 = landingpad { ptr, i32 }
          cleanup
          catch ptr @_ZTISt9exception
  %50 = extractvalue { ptr, i32 } %49, 0
  store ptr %50, ptr %9, align 8
  %51 = extractvalue { ptr, i32 } %49, 1
  store i32 %51, ptr %10, align 4
  br label %52

52:                                               ; preds = %48
  %53 = load i32, ptr %10, align 4
  %54 = call i32 @llvm.eh.typeid.for.p0(ptr @_ZTISt9exception) #15
  %55 = icmp eq i32 %53, %54
  br i1 %55, label %56, label %65

56:                                               ; preds = %52
  call void @llvm.lifetime.start.p0(i64 8, ptr %13) #15
  %57 = load ptr, ptr %9, align 8
  %58 = call ptr @__cxa_begin_catch(ptr %57) #15
  store ptr %58, ptr %13, align 8
  store i32 4, ptr %8, align 4, !tbaa !23
  invoke void @__cxa_end_catch()
          to label %59 unwind label %61

59:                                               ; preds = %56
  call void @llvm.lifetime.end.p0(i64 8, ptr %13) #15
  br label %60

60:                                               ; preds = %59, %47
  call void @__cxa_end_catch()
  call void @llvm.lifetime.end.p0(i64 8, ptr %12) #15
  br label %33

61:                                               ; preds = %56
  %62 = landingpad { ptr, i32 }
          cleanup
  %63 = extractvalue { ptr, i32 } %62, 0
  store ptr %63, ptr %9, align 8
  %64 = extractvalue { ptr, i32 } %62, 1
  store i32 %64, ptr %10, align 4
  call void @llvm.lifetime.end.p0(i64 8, ptr %13) #15
  br label %65

65:                                               ; preds = %61, %52
  invoke void @__cxa_end_catch()
          to label %66 unwind label %80

66:                                               ; preds = %65
  call void @llvm.lifetime.end.p0(i64 8, ptr %12) #15
  br label %74

67:                                               ; preds = %27
  %68 = landingpad { ptr, i32 }
          cleanup
  %69 = extractvalue { ptr, i32 } %68, 0
  store ptr %69, ptr %9, align 8
  %70 = extractvalue { ptr, i32 } %68, 1
  store i32 %70, ptr %10, align 4
  invoke void @__cxa_end_catch()
          to label %71 unwind label %80

71:                                               ; preds = %67
  call void @llvm.lifetime.end.p0(i64 8, ptr %14) #15
  br label %74

72:                                               ; preds = %33, %18
  call void @llvm.lifetime.end.p0(i64 4, ptr %8) #15
  %73 = load i32, ptr %4, align 4
  ret i32 %73

74:                                               ; preds = %71, %66, %35
  call void @llvm.lifetime.end.p0(i64 4, ptr %8) #15
  br label %75

75:                                               ; preds = %74
  %76 = load ptr, ptr %9, align 8
  %77 = load i32, ptr %10, align 4
  %78 = insertvalue { ptr, i32 } poison, ptr %76, 0
  %79 = insertvalue { ptr, i32 } %78, i32 %77, 1
  resume { ptr, i32 } %79

80:                                               ; preds = %67, %65
  %81 = landingpad { ptr, i32 }
          catch ptr null
  %82 = extractvalue { ptr, i32 } %81, 0
  call void @__clang_call_terminate(ptr %82) #16
  unreachable
}