; Function Attrs: mustprogress uwtable
define hidden noundef i32 @_Z20luaD_rawrunprotectedP9lua_StatePFvS0_PvES1_(ptr noundef %0, ptr noundef readonly captures(none) %1, ptr noundef %2) local_unnamed_addr #0 personality ptr @__gxx_personality_v0 {
  invoke void %1(ptr noundef %0, ptr noundef %2)
          to label %33 unwind label %4

4:                                                ; preds = %3
  %5 = landingpad { ptr, i32 }
          cleanup
          catch ptr @_ZTI13lua_exception
          catch ptr @_ZTISt9exception
  %6 = extractvalue { ptr, i32 } %5, 0
  %7 = extractvalue { ptr, i32 } %5, 1
  %8 = tail call i32 @llvm.eh.typeid.for.p0(ptr nonnull @_ZTI13lua_exception) #16
  %9 = icmp eq i32 %7, %8
  br i1 %9, label %10, label %14

10:                                               ; preds = %4
  %11 = tail call ptr @__cxa_begin_catch(ptr %6) #16
  %12 = getelementptr inbounds nuw i8, ptr %11, i64 16
  %13 = load i32, ptr %12, align 8, !tbaa !4
  br label %.sink.split

14:                                               ; preds = %4
  %15 = tail call i32 @llvm.eh.typeid.for.p0(ptr nonnull @_ZTISt9exception) #16
  %16 = icmp eq i32 %7, %15
  br i1 %16, label %17, label %34

17:                                               ; preds = %14
  %18 = tail call ptr @__cxa_begin_catch(ptr %6) #16
  %19 = load ptr, ptr %18, align 8, !tbaa !12
  %20 = getelementptr inbounds nuw i8, ptr %19, i64 16
  %21 = load ptr, ptr %20, align 8
  %22 = tail call noundef ptr %21(ptr noundef nonnull align 8 dereferenceable(8) %18) #16
  invoke void @_Z14luaG_pusherrorP9lua_StatePKc(ptr noundef %0, ptr noundef %22)
          to label %.sink.split unwind label %23

23:                                               ; preds = %17
  %24 = landingpad { ptr, i32 }
          cleanup
          catch ptr @_ZTISt9exception
  %25 = extractvalue { ptr, i32 } %24, 1
  %26 = icmp eq i32 %25, %7
  br i1 %26, label %27, label %32

27:                                               ; preds = %23
  %28 = extractvalue { ptr, i32 } %24, 0
  %29 = tail call ptr @__cxa_begin_catch(ptr %28) #16
  invoke void @__cxa_end_catch()
          to label %.sink.split unwind label %30

30:                                               ; preds = %27
  %31 = landingpad { ptr, i32 }
          cleanup
  br label %32

32:                                               ; preds = %30, %23
  %.merged22 = phi { ptr, i32 } [ %31, %30 ], [ %24, %23 ]
  invoke void @__cxa_end_catch()
          to label %34 unwind label %35

.sink.split:                                      ; preds = %17, %27, %10
  %.0.ph = phi i32 [ %13, %10 ], [ 2, %17 ], [ 4, %27 ]
  tail call void @__cxa_end_catch()
  br label %33

33:                                               ; preds = %.sink.split, %3
  %.0 = phi i32 [ 0, %3 ], [ %.0.ph, %.sink.split ]
  ret i32 %.0

34:                                               ; preds = %32, %14
  %.merged = phi { ptr, i32 } [ %5, %14 ], [ %.merged22, %32 ]
  resume { ptr, i32 } %.merged

35:                                               ; preds = %32
  %36 = landingpad { ptr, i32 }
          catch ptr null
  %37 = extractvalue { ptr, i32 } %36, 0
  tail call void @__clang_call_terminate(ptr %37) #17
  unreachable
}